target datalayout = "e-m:e-p270:32:32-p271:32:32-p272:64:64-i64:64-i128:128-f80:128-n8:16:32:64-S128"
target triple = "x86_64-unknown-linux-gnu"

module asm ".section \22.export_symbol\22,\22a\22 ; __export_symbol_video_firmware_drivers_only: ; .asciz \22\22 ; .asciz \22\22 ; .balign 8 ; .quad video_firmware_drivers_only ; .previous"

%struct.obs_kernel_param = type { ptr, ptr, i32 }

@video_nomodeset = internal unnamed_addr global i1 false, align 1
@__UNIQUE_ID___addressable_video_firmware_drivers_only303 = internal global ptr @video_firmware_drivers_only, section ".discard.addressable", align 8
@__setup_str_disable_modeset = internal constant [10 x i8] c"nomodeset\00", section ".init.rodata", align 1
@__setup_disable_modeset = internal global %struct.obs_kernel_param { ptr @__setup_str_disable_modeset, ptr @disable_modeset, i32 0 }, section ".init.setup", align 8
@.str = private unnamed_addr constant [86 x i8] c"\014Booted with the nomodeset parameter. Only the system framebuffer will be available\0A\00", align 1
@llvm.compiler.used = appending global [2 x ptr] [ptr @__UNIQUE_ID___addressable_video_firmware_drivers_only303, ptr @__setup_disable_modeset], section "llvm.metadata"

; Function Attrs: fn_ret_thunk_extern mustprogress nofree norecurse nosync nounwind null_pointer_is_valid willreturn memory(read, argmem: none, inaccessiblemem: none)
define dso_local zeroext i1 @video_firmware_drivers_only() #0 align 16 {
  %1 = load i1, ptr @video_nomodeset, align 1
  ret i1 %1
}

; Function Attrs: cold fn_ret_thunk_extern nounwind null_pointer_is_valid optsize
define internal noundef i32 @disable_modeset(ptr nocapture readnone %0) #1 section ".init.text" align 16 {
  store i1 true, ptr @video_nomodeset, align 1
  %2 = tail call i32 (ptr, ...) @_printk(ptr noundef nonnull @.str) #3
  ret i32 1
}

; Function Attrs: cold null_pointer_is_valid
declare dso_local i32 @_printk(ptr noundef, ...) local_unnamed_addr #2


!llvm.module.flags = !{!0, !1, !2, !3, !4}

!0 = !{i32 1, !"wchar_size", i32 2}
!1 = !{i32 8, !"cf-protection-branch", i32 1}
!2 = !{i32 4, !"function_return_thunk_extern", i32 1}
!3 = !{i32 4, !"indirect_branch_cs_prefix", i32 1}
!4 = !{i32 4, !"SkipRaxSetup", i32 1}
